target datalayout = "e-m:e-p270:32:32-p271:32:32-p272:64:64-i64:64-i128:128-f80:128-n8:16:32:64-S128"
target triple = "x86_64-pc-linux-gnu"

%struct.Mio_Cell2_t_ = type { ptr, ptr, i32, float, i64, i64, i32, [6 x i32], ptr }
%struct.Nf_Cfg_t_ = type { i32 }
%struct.Vec_Int_t_ = type { i32, i32, ptr }
%struct.Nf_Man_t_ = type { ptr, ptr, ptr, ptr, ptr, ptr, i32, ptr, %struct.Vec_Ptr_t_, %struct.Vec_Int_t_, %struct.Vec_Int_t_, %struct.Vec_Flt_t_, %struct.Vec_Int_t_, %struct.Vec_Flt_t_, %struct.Vec_Int_t_, %struct.Vec_Int_t_, i32, i32, i32, i32, i32, i64, float, i64, [6 x double], i32 }
%struct.Vec_Ptr_t_ = type { i32, i32, ptr }
%struct.Vec_Flt_t_ = type { i32, i32, ptr }
%struct.Nf_Mat_t_ = type { i32, %struct.Nf_Cfg_t_, i32, float }

@.str.5 = private unnamed_addr constant [8 x i8] c"       \00", align 1
@.str.7 = private unnamed_addr constant [3 x i8] c"  \00", align 1
@.str.38 = private unnamed_addr constant [10 x i8] c"%5d %s : \00", align 1
@.str.39 = private unnamed_addr constant [12 x i8] c"Unassigned\0A\00", align 1
@.str.40 = private unnamed_addr constant [11 x i8] c"D =%6.2f  \00", align 1
@.str.41 = private unnamed_addr constant [11 x i8] c"A =%6.2f  \00", align 1
@.str.42 = private unnamed_addr constant [8 x i8] c"C = %d \00", align 1
@.str.43 = private unnamed_addr constant [8 x i8] c"Cut = {\00", align 1
@.str.44 = private unnamed_addr constant [5 x i8] c"%4d \00", align 1
@.str.45 = private unnamed_addr constant [6 x i8] c"     \00", align 1
@.str.46 = private unnamed_addr constant [4 x i8] c"}  \00", align 1
@.str.47 = private unnamed_addr constant [6 x i8] c"%10s \00", align 1
@.str.48 = private unnamed_addr constant [5 x i8] c"%d  \00", align 1
@.str.49 = private unnamed_addr constant [2 x i8] c"{\00", align 1
@.str.50 = private unnamed_addr constant [7 x i8] c"%6.2f \00", align 1
@.str.51 = private unnamed_addr constant [4 x i8] c" } \00", align 1
@.str.52 = private unnamed_addr constant [6 x i8] c"%s%d \00", align 1
@.str.53 = private unnamed_addr constant [2 x i8] c"!\00", align 1
@.str.54 = private unnamed_addr constant [2 x i8] c" \00", align 1

; Function Attrs: inlinehint nounwind uwtable
define internal ptr @Vec_PtrEntry(ptr noundef %0, i32 noundef %1) #2 {
  %3 = alloca ptr, align 8
  %4 = alloca i32, align 4
  store ptr %0, ptr %3, align 8, !tbaa !119
  store i32 %1, ptr %4, align 4, !tbaa !17
  %5 = load ptr, ptr %3, align 8, !tbaa !119
  %6 = getelementptr inbounds nuw %struct.Vec_Ptr_t_, ptr %5, i32 0, i32 2
  %7 = load ptr, ptr %6, align 8, !tbaa !121
  %8 = load i32, ptr %4, align 4, !tbaa !17
  %9 = sext i32 %8 to i64
  %10 = getelementptr inbounds ptr, ptr %7, i64 %9
  %11 = load ptr, ptr %10, align 8, !tbaa !135
  ret ptr %11
}

; Function Attrs: inlinehint nounwind uwtable
define internal i32 @Vec_IntEntry(ptr noundef %0, i32 noundef %1) #2 {
  %3 = alloca ptr, align 8
  %4 = alloca i32, align 4
  store ptr %0, ptr %3, align 8, !tbaa !26
  store i32 %1, ptr %4, align 4, !tbaa !17
  %5 = load ptr, ptr %3, align 8, !tbaa !26
  %6 = getelementptr inbounds nuw %struct.Vec_Int_t_, ptr %5, i32 0, i32 2
  %7 = load ptr, ptr %6, align 8, !tbaa !46
  %8 = load i32, ptr %4, align 4, !tbaa !17
  %9 = sext i32 %8 to i64
  %10 = getelementptr inbounds i32, ptr %7, i64 %9
  %11 = load i32, ptr %10, align 4, !tbaa !17
  ret i32 %11
}

; Function Attrs: inlinehint nounwind uwtable
define internal ptr @Nf_ManCutSet(ptr noundef %0, i32 noundef %1) #2 {
  %3 = alloca ptr, align 8
  %4 = alloca i32, align 4
  store ptr %0, ptr %3, align 8, !tbaa !61
  store i32 %1, ptr %4, align 4, !tbaa !17
  %5 = load ptr, ptr %3, align 8, !tbaa !61
  %6 = getelementptr inbounds nuw %struct.Nf_Man_t_, ptr %5, i32 0, i32 8
  %7 = load i32, ptr %4, align 4, !tbaa !17
  %8 = ashr i32 %7, 16
  %9 = call ptr @Vec_PtrEntry(ptr noundef %6, i32 noundef %8)
  %10 = load i32, ptr %4, align 4, !tbaa !17
  %11 = and i32 %10, 65535
  %12 = sext i32 %11 to i64
  %13 = getelementptr inbounds i32, ptr %9, i64 %12
  ret ptr %13
}

; Function Attrs: inlinehint nounwind uwtable
define internal i32 @Nf_ObjCutSetId(ptr noundef %0, i32 noundef %1) #2 {
  %3 = alloca ptr, align 8
  %4 = alloca i32, align 4
  store ptr %0, ptr %3, align 8, !tbaa !61
  store i32 %1, ptr %4, align 4, !tbaa !17
  %5 = load ptr, ptr %3, align 8, !tbaa !61
  %6 = getelementptr inbounds nuw %struct.Nf_Man_t_, ptr %5, i32 0, i32 9
  %7 = load i32, ptr %4, align 4, !tbaa !17
  %8 = call i32 @Vec_IntEntry(ptr noundef %6, i32 noundef %7)
  ret i32 %8
}

; Function Attrs: inlinehint nounwind uwtable
define internal i32 @Nf_CfgVar(i32 %0, i32 noundef %1) #2 {
  %3 = alloca %struct.Nf_Cfg_t_, align 4
  %4 = alloca i32, align 4
  %5 = getelementptr inbounds nuw %struct.Nf_Cfg_t_, ptr %3, i32 0, i32 0
  store i32 %0, ptr %5, align 4
  store i32 %1, ptr %4, align 4, !tbaa !17
  %6 = load i32, ptr %3, align 4
  %7 = lshr i32 %6, 8
  %8 = load i32, ptr %4, align 4, !tbaa !17
  %9 = shl i32 %8, 2
  %10 = ashr i32 %7, %9
  %11 = and i32 %10, 15
  ret i32 %11
}

; Function Attrs: inlinehint nounwind uwtable
define internal i32 @Nf_CfgCompl(i32 %0, i32 noundef %1) #2 {
  %3 = alloca %struct.Nf_Cfg_t_, align 4
  %4 = alloca i32, align 4
  %5 = getelementptr inbounds nuw %struct.Nf_Cfg_t_, ptr %3, i32 0, i32 0
  store i32 %0, ptr %5, align 4
  store i32 %1, ptr %4, align 4, !tbaa !17
  %6 = load i32, ptr %3, align 4
  %7 = lshr i32 %6, 1
  %8 = and i32 %7, 127
  %9 = load i32, ptr %4, align 4, !tbaa !17
  %10 = ashr i32 %8, %9
  %11 = and i32 %10, 1
  ret i32 %11
}

; Function Attrs: inlinehint nounwind uwtable
define internal ptr @Nf_CutLeaves(ptr noundef %0) #2 {
  %2 = alloca ptr, align 8
  store ptr %0, ptr %2, align 8, !tbaa !8
  %3 = load ptr, ptr %2, align 8, !tbaa !8
  %4 = getelementptr inbounds i32, ptr %3, i64 1
  ret ptr %4
}

; Function Attrs: inlinehint nounwind uwtable
define internal float @Scl_Int2Flt(i32 noundef %0) #2 {
  %2 = alloca i32, align 4
  store i32 %0, ptr %2, align 4, !tbaa !17
  %3 = load i32, ptr %2, align 4, !tbaa !17
  %4 = sitofp i32 %3 to float
  %5 = fdiv float %4, 1.000000e+03
  ret float %5
}

; Function Attrs: inlinehint nounwind uwtable
define internal ptr @Nf_CutFromHandle(ptr noundef %0, i32 noundef %1) #2 {
  %3 = alloca ptr, align 8
  %4 = alloca i32, align 4
  store ptr %0, ptr %3, align 8, !tbaa !8
  store i32 %1, ptr %4, align 4, !tbaa !17
  %5 = load ptr, ptr %3, align 8, !tbaa !8
  %6 = load i32, ptr %4, align 4, !tbaa !17
  %7 = sext i32 %6 to i64
  %8 = getelementptr inbounds i32, ptr %5, i64 %7
  ret ptr %8
}

; Function Attrs: inlinehint nounwind uwtable
define internal ptr @Nf_ObjCutSet(ptr noundef %0, i32 noundef %1) #2 {
  %3 = alloca ptr, align 8
  %4 = alloca i32, align 4
  store ptr %0, ptr %3, align 8, !tbaa !61
  store i32 %1, ptr %4, align 4, !tbaa !17
  %5 = load ptr, ptr %3, align 8, !tbaa !61
  %6 = load ptr, ptr %3, align 8, !tbaa !61
  %7 = load i32, ptr %4, align 4, !tbaa !17
  %8 = call i32 @Nf_ObjCutSetId(ptr noundef %6, i32 noundef %7)
  %9 = call ptr @Nf_ManCutSet(ptr noundef %5, i32 noundef %8)
  ret ptr %9
}

; Function Attrs: inlinehint nounwind uwtable
define internal ptr @Nf_ManCell(ptr noundef %0, i32 noundef %1) #2 {
  %3 = alloca ptr, align 8
  %4 = alloca i32, align 4
  store ptr %0, ptr %3, align 8, !tbaa !61
  store i32 %1, ptr %4, align 4, !tbaa !17
  %5 = load ptr, ptr %3, align 8, !tbaa !61
  %6 = getelementptr inbounds nuw %struct.Nf_Man_t_, ptr %5, i32 0, i32 5
  %7 = load ptr, ptr %6, align 8, !tbaa !63
  %8 = load i32, ptr %4, align 4, !tbaa !17
  %9 = sext i32 %8 to i64
  %10 = getelementptr inbounds %struct.Mio_Cell2_t_, ptr %7, i64 %9
  ret ptr %10
}

; Function Attrs: nounwind uwtable
define void @Nf_ManCutMatchPrint(ptr noundef %0, i32 noundef %1, ptr noundef %2, ptr noundef %3) #0 {
  %5 = alloca ptr, align 8
  %6 = alloca i32, align 4
  %7 = alloca ptr, align 8
  %8 = alloca ptr, align 8
  %9 = alloca ptr, align 8
  %10 = alloca i32, align 4
  %11 = alloca ptr, align 8
  %12 = alloca i32, align 4
  store ptr %0, ptr %5, align 8, !tbaa !61
  store i32 %1, ptr %6, align 4, !tbaa !17
  store ptr %2, ptr %7, align 8, !tbaa !175
  store ptr %3, ptr %8, align 8, !tbaa !193
  call void @llvm.lifetime.start.p0(i64 8, ptr %9) #13
  call void @llvm.lifetime.start.p0(i64 4, ptr %10) #13
  call void @llvm.lifetime.start.p0(i64 8, ptr %11) #13
  %13 = load i32, ptr %6, align 4, !tbaa !17
  %14 = load ptr, ptr %7, align 8, !tbaa !175
  %15 = call i32 (ptr, ...) @printf(ptr noundef @.str.38, i32 noundef %13, ptr noundef %14)
  %16 = load ptr, ptr %8, align 8, !tbaa !193
  %17 = load i32, ptr %16, align 4
  %18 = lshr i32 %17, 20
  %19 = and i32 %18, 1023
  %20 = icmp eq i32 %19, 0
  br i1 %20, label %21, label %23

21:                                               ; preds = %4
  %22 = call i32 (ptr, ...) @printf(ptr noundef @.str.39)
  store i32 1, ptr %12, align 4
  br label %167

23:                                               ; preds = %4
  %24 = load ptr, ptr %5, align 8, !tbaa !61
  %25 = load ptr, ptr %8, align 8, !tbaa !193
  %26 = load i32, ptr %25, align 4
  %27 = and i32 %26, 1048575
  %28 = call ptr @Nf_ManCell(ptr noundef %24, i32 noundef %27)
  store ptr %28, ptr %9, align 8, !tbaa !3
  %29 = load ptr, ptr %5, align 8, !tbaa !61
  %30 = load i32, ptr %6, align 4, !tbaa !17
  %31 = call ptr @Nf_ObjCutSet(ptr noundef %29, i32 noundef %30)
  %32 = load ptr, ptr %8, align 8, !tbaa !193
  %33 = load i32, ptr %32, align 4
  %34 = lshr i32 %33, 20
  %35 = and i32 %34, 1023
  %36 = call ptr @Nf_CutFromHandle(ptr noundef %31, i32 noundef %35)
  store ptr %36, ptr %11, align 8, !tbaa !8
  %37 = load ptr, ptr %8, align 8, !tbaa !193
  %38 = getelementptr inbounds nuw %struct.Nf_Mat_t_, ptr %37, i32 0, i32 2
  %39 = load i32, ptr %38, align 4, !tbaa !195
  %40 = call float @Scl_Int2Flt(i32 noundef %39)
  %41 = fpext float %40 to double
  %42 = call i32 (ptr, ...) @printf(ptr noundef @.str.40, double noundef %41)
  %43 = load ptr, ptr %8, align 8, !tbaa !193
  %44 = getelementptr inbounds nuw %struct.Nf_Mat_t_, ptr %43, i32 0, i32 3
  %45 = load float, ptr %44, align 4, !tbaa !198
  %46 = fpext float %45 to double
  %47 = call i32 (ptr, ...) @printf(ptr noundef @.str.41, double noundef %46)
  %48 = load ptr, ptr %8, align 8, !tbaa !193
  %49 = load i32, ptr %48, align 4
  %50 = lshr i32 %49, 30
  %51 = and i32 %50, 1
  %52 = call i32 (ptr, ...) @printf(ptr noundef @.str.42, i32 noundef %51)
  %53 = call i32 (ptr, ...) @printf(ptr noundef @.str.7)
  %54 = call i32 (ptr, ...) @printf(ptr noundef @.str.43)
  store i32 0, ptr %10, align 4, !tbaa !17
  br label %55

55:                                               ; preds = %70, %23
  %56 = load i32, ptr %10, align 4, !tbaa !17
  %57 = load ptr, ptr %9, align 8, !tbaa !3
  %58 = getelementptr inbounds nuw %struct.Mio_Cell2_t_, ptr %57, i32 0, i32 2
  %59 = load i32, ptr %58, align 8
  %60 = lshr i32 %59, 28
  %61 = icmp slt i32 %56, %60
  br i1 %61, label %62, label %73

62:                                               ; preds = %55
  %63 = load ptr, ptr %11, align 8, !tbaa !8
  %64 = call ptr @Nf_CutLeaves(ptr noundef %63)
  %65 = load i32, ptr %10, align 4, !tbaa !17
  %66 = sext i32 %65 to i64
  %67 = getelementptr inbounds i32, ptr %64, i64 %66
  %68 = load i32, ptr %67, align 4, !tbaa !17
  %69 = call i32 (ptr, ...) @printf(ptr noundef @.str.44, i32 noundef %68)
  br label %70

70:                                               ; preds = %62
  %71 = load i32, ptr %10, align 4, !tbaa !17
  %72 = add nsw i32 %71, 1
  store i32 %72, ptr %10, align 4, !tbaa !17
  br label %55, !llvm.loop !199

73:                                               ; preds = %55
  br label %74

74:                                               ; preds = %79, %73
  %75 = load i32, ptr %10, align 4, !tbaa !17
  %76 = icmp slt i32 %75, 6
  br i1 %76, label %77, label %82

77:                                               ; preds = %74
  %78 = call i32 (ptr, ...) @printf(ptr noundef @.str.45)
  br label %79

79:                                               ; preds = %77
  %80 = load i32, ptr %10, align 4, !tbaa !17
  %81 = add nsw i32 %80, 1
  store i32 %81, ptr %10, align 4, !tbaa !17
  br label %74, !llvm.loop !200

82:                                               ; preds = %74
  %83 = call i32 (ptr, ...) @printf(ptr noundef @.str.46)
  %84 = load ptr, ptr %9, align 8, !tbaa !3
  %85 = getelementptr inbounds nuw %struct.Mio_Cell2_t_, ptr %84, i32 0, i32 0
  %86 = load ptr, ptr %85, align 8, !tbaa !73
  %87 = call i32 (ptr, ...) @printf(ptr noundef @.str.47, ptr noundef %86)
  %88 = load ptr, ptr %9, align 8, !tbaa !3
  %89 = getelementptr inbounds nuw %struct.Mio_Cell2_t_, ptr %88, i32 0, i32 2
  %90 = load i32, ptr %89, align 8
  %91 = lshr i32 %90, 28
  %92 = call i32 (ptr, ...) @printf(ptr noundef @.str.48, i32 noundef %91)
  %93 = call i32 (ptr, ...) @printf(ptr noundef @.str.49)
  store i32 0, ptr %10, align 4, !tbaa !17
  br label %94

94:                                               ; preds = %111, %82
  %95 = load i32, ptr %10, align 4, !tbaa !17
  %96 = load ptr, ptr %9, align 8, !tbaa !3
  %97 = getelementptr inbounds nuw %struct.Mio_Cell2_t_, ptr %96, i32 0, i32 2
  %98 = load i32, ptr %97, align 8
  %99 = lshr i32 %98, 28
  %100 = icmp slt i32 %95, %99
  br i1 %100, label %101, label %114

101:                                              ; preds = %94
  %102 = load ptr, ptr %9, align 8, !tbaa !3
  %103 = getelementptr inbounds nuw %struct.Mio_Cell2_t_, ptr %102, i32 0, i32 7
  %104 = load i32, ptr %10, align 4, !tbaa !17
  %105 = sext i32 %104 to i64
  %106 = getelementptr inbounds [6 x i32], ptr %103, i64 0, i64 %105
  %107 = load i32, ptr %106, align 4, !tbaa !17
  %108 = call float @Scl_Int2Flt(i32 noundef %107)
  %109 = fpext float %108 to double
  %110 = call i32 (ptr, ...) @printf(ptr noundef @.str.50, double noundef %109)
  br label %111

111:                                              ; preds = %101
  %112 = load i32, ptr %10, align 4, !tbaa !17
  %113 = add nsw i32 %112, 1
  store i32 %113, ptr %10, align 4, !tbaa !17
  br label %94, !llvm.loop !201

114:                                              ; preds = %94
  br label %115

115:                                              ; preds = %120, %114
  %116 = load i32, ptr %10, align 4, !tbaa !17
  %117 = icmp slt i32 %116, 6
  br i1 %117, label %118, label %123

118:                                              ; preds = %115
  %119 = call i32 (ptr, ...) @printf(ptr noundef @.str.5)
  br label %120

120:                                              ; preds = %118
  %121 = load i32, ptr %10, align 4, !tbaa !17
  %122 = add nsw i32 %121, 1
  store i32 %122, ptr %10, align 4, !tbaa !17
  br label %115, !llvm.loop !202

123:                                              ; preds = %115
  %124 = call i32 (ptr, ...) @printf(ptr noundef @.str.51)
  store i32 0, ptr %10, align 4, !tbaa !17
  br label %125

125:                                              ; preds = %148, %123
  %126 = load i32, ptr %10, align 4, !tbaa !17
  %127 = load ptr, ptr %9, align 8, !tbaa !3
  %128 = getelementptr inbounds nuw %struct.Mio_Cell2_t_, ptr %127, i32 0, i32 2
  %129 = load i32, ptr %128, align 8
  %130 = lshr i32 %129, 28
  %131 = icmp slt i32 %126, %130
  br i1 %131, label %132, label %151

132:                                              ; preds = %125
  %133 = load ptr, ptr %8, align 8, !tbaa !193
  %134 = getelementptr inbounds nuw %struct.Nf_Mat_t_, ptr %133, i32 0, i32 1
  %135 = load i32, ptr %10, align 4, !tbaa !17
  %136 = getelementptr inbounds nuw %struct.Nf_Cfg_t_, ptr %134, i32 0, i32 0
  %137 = load i32, ptr %136, align 4
  %138 = call i32 @Nf_CfgCompl(i32 %137, i32 noundef %135)
  %139 = icmp ne i32 %138, 0
  %140 = select i1 %139, ptr @.str.53, ptr @.str.54
  %141 = load ptr, ptr %8, align 8, !tbaa !193
  %142 = getelementptr inbounds nuw %struct.Nf_Mat_t_, ptr %141, i32 0, i32 1
  %143 = load i32, ptr %10, align 4, !tbaa !17
  %144 = getelementptr inbounds nuw %struct.Nf_Cfg_t_, ptr %142, i32 0, i32 0
  %145 = load i32, ptr %144, align 4
  %146 = call i32 @Nf_CfgVar(i32 %145, i32 noundef %143)
  %147 = call i32 (ptr, ...) @printf(ptr noundef @.str.52, ptr noundef %140, i32 noundef %146)
  br label %148

148:                                              ; preds = %132
  %149 = load i32, ptr %10, align 4, !tbaa !17
  %150 = add nsw i32 %149, 1
  store i32 %150, ptr %10, align 4, !tbaa !17
  br label %125, !llvm.loop !203

151:                                              ; preds = %125
  br label %152

152:                                              ; preds = %157, %151
  %153 = load i32, ptr %10, align 4, !tbaa !17
  %154 = icmp slt i32 %153, 6
  br i1 %154, label %155, label %160

155:                                              ; preds = %152
  %156 = call i32 (ptr, ...) @printf(ptr noundef @.str.7)
  br label %157

157:                                              ; preds = %155
  %158 = load i32, ptr %10, align 4, !tbaa !17
  %159 = add nsw i32 %158, 1
  store i32 %159, ptr %10, align 4, !tbaa !17
  br label %152, !llvm.loop !204

160:                                              ; preds = %152
  %161 = load ptr, ptr %9, align 8, !tbaa !3
  %162 = getelementptr inbounds nuw %struct.Mio_Cell2_t_, ptr %161, i32 0, i32 5
  %163 = load ptr, ptr %9, align 8, !tbaa !3
  %164 = getelementptr inbounds nuw %struct.Mio_Cell2_t_, ptr %163, i32 0, i32 2
  %165 = load i32, ptr %164, align 8
  %166 = lshr i32 %165, 28
  call void @Dau_DsdPrintFromTruth(ptr noundef %162, i32 noundef %166)
  store i32 0, ptr %12, align 4
  br label %167

167:                                              ; preds = %160, %21
  call void @llvm.lifetime.end.p0(i64 8, ptr %11) #13
  call void @llvm.lifetime.end.p0(i64 4, ptr %10) #13
  call void @llvm.lifetime.end.p0(i64 8, ptr %9) #13
  %168 = load i32, ptr %12, align 4
  switch i32 %168, label %170 [
    i32 0, label %169
    i32 1, label %169
  ]

169:                                              ; preds = %167, %167
  ret void

170:                                              ; preds = %167
  unreachable
}