; Function Attrs: nounwind uwtable
define void @Nf_ManCutMatchPrint(ptr noundef readonly captures(none) %0, i32 noundef %1, ptr noundef %2, ptr noundef readonly captures(none) %3) local_unnamed_addr #2 {
  %5 = tail call i32 (ptr, ...) @printf(ptr noundef nonnull dereferenceable(1) @.str.38, i32 noundef %1, ptr noundef %2)
  %6 = load i32, ptr %3, align 4
  %7 = and i32 %6, 1072693248
  %8 = icmp eq i32 %7, 0
  br i1 %8, label %9, label %10

9:                                                ; preds = %4
  %puts = tail call i32 @puts(ptr nonnull dereferenceable(1) @str)
  br label %110

10:                                               ; preds = %4
  %11 = and i32 %6, 1048575
  %12 = getelementptr i8, ptr %0, i64 40
  %.val38 = load ptr, ptr %12, align 8, !tbaa !62
  %13 = zext nneg i32 %11 to i64
  %14 = getelementptr inbounds nuw %struct.Mio_Cell2_t_, ptr %.val38, i64 %13
  %15 = getelementptr i8, ptr %0, i64 72
  %.val = load ptr, ptr %15, align 8, !tbaa !108
  %16 = getelementptr i8, ptr %0, i64 88
  %.val37 = load ptr, ptr %16, align 8, !tbaa !25
  %17 = sext i32 %1 to i64
  %18 = getelementptr inbounds i32, ptr %.val37, i64 %17
  %19 = load i32, ptr %18, align 4, !tbaa !13
  %20 = ashr i32 %19, 16
  %21 = sext i32 %20 to i64
  %22 = getelementptr inbounds ptr, ptr %.val, i64 %21
  %23 = load ptr, ptr %22, align 8, !tbaa !124
  %24 = getelementptr inbounds nuw i8, ptr %3, i64 8
  %25 = load i32, ptr %24, align 4, !tbaa !192
  %26 = sitofp i32 %25 to float
  %27 = fdiv float %26, 1.000000e+03
  %28 = fpext float %27 to double
  %29 = tail call i32 (ptr, ...) @printf(ptr noundef nonnull dereferenceable(1) @.str.40, double noundef %28)
  %30 = getelementptr inbounds nuw i8, ptr %3, i64 12
  %31 = load float, ptr %30, align 4, !tbaa !195
  %32 = fpext float %31 to double
  %33 = tail call i32 (ptr, ...) @printf(ptr noundef nonnull dereferenceable(1) @.str.41, double noundef %32)
  %34 = load i32, ptr %3, align 4
  %35 = lshr i32 %34, 30
  %36 = and i32 %35, 1
  %37 = tail call i32 (ptr, ...) @printf(ptr noundef nonnull dereferenceable(1) @.str.42, i32 noundef %36)
  %38 = tail call i32 (ptr, ...) @printf(ptr noundef nonnull dereferenceable(1) @.str.7)
  %39 = tail call i32 (ptr, ...) @printf(ptr noundef nonnull dereferenceable(1) @.str.43)
  %40 = getelementptr inbounds nuw i8, ptr %14, i64 16
  %41 = load i32, ptr %40, align 8
  %.not58 = icmp ult i32 %41, 268435456
  br i1 %.not58, label %.lr.ph43.preheader, label %.lr.ph

.lr.ph:                                           ; preds = %10
  %42 = and i32 %19, 65535
  %43 = zext nneg i32 %42 to i64
  %44 = getelementptr inbounds nuw i32, ptr %23, i64 %43
  %45 = lshr i32 %6, 20
  %46 = and i32 %45, 1023
  %47 = zext nneg i32 %46 to i64
  %48 = getelementptr inbounds nuw i32, ptr %44, i64 %47
  %49 = getelementptr inbounds nuw i8, ptr %48, i64 4
  br label %52

.preheader40:                                     ; preds = %52
  %50 = trunc nuw nsw i64 %indvars.iv.next to i32
  %51 = icmp samesign ult i64 %indvars.iv, 5
  br i1 %51, label %.lr.ph43.preheader, label %._crit_edge

.lr.ph43.preheader:                               ; preds = %10, %.preheader40
  %.142.ph = phi i32 [ 0, %10 ], [ %50, %.preheader40 ]
  br label %.lr.ph43

52:                                               ; preds = %.lr.ph, %52
  %indvars.iv = phi i64 [ 0, %.lr.ph ], [ %indvars.iv.next, %52 ]
  %53 = getelementptr inbounds nuw i32, ptr %49, i64 %indvars.iv
  %54 = load i32, ptr %53, align 4, !tbaa !13
  %55 = tail call i32 (ptr, ...) @printf(ptr noundef nonnull dereferenceable(1) @.str.44, i32 noundef %54)
  %indvars.iv.next = add nuw nsw i64 %indvars.iv, 1
  %56 = load i32, ptr %40, align 8
  %57 = lshr i32 %56, 28
  %58 = zext nneg i32 %57 to i64
  %59 = icmp samesign ult i64 %indvars.iv.next, %58
  br i1 %59, label %52, label %.preheader40, !llvm.loop !196

.lr.ph43:                                         ; preds = %.lr.ph43.preheader, %.lr.ph43
  %.142 = phi i32 [ %61, %.lr.ph43 ], [ %.142.ph, %.lr.ph43.preheader ]
  %60 = tail call i32 (ptr, ...) @printf(ptr noundef nonnull dereferenceable(1) @.str.45)
  %61 = add nuw nsw i32 %.142, 1
  %exitcond.not = icmp eq i32 %61, 6
  br i1 %exitcond.not, label %._crit_edge, label %.lr.ph43, !llvm.loop !197

._crit_edge:                                      ; preds = %.lr.ph43, %.preheader40
  %62 = tail call i32 (ptr, ...) @printf(ptr noundef nonnull dereferenceable(1) @.str.46)
  %63 = load ptr, ptr %14, align 8, !tbaa !76
  %64 = tail call i32 (ptr, ...) @printf(ptr noundef nonnull dereferenceable(1) @.str.47, ptr noundef %63)
  %65 = load i32, ptr %40, align 8
  %66 = lshr i32 %65, 28
  %67 = tail call i32 (ptr, ...) @printf(ptr noundef nonnull dereferenceable(1) @.str.48, i32 noundef %66)
  %putchar = tail call i32 @putchar(i32 123)
  %68 = load i32, ptr %40, align 8
  %.not59 = icmp ult i32 %68, 268435456
  br i1 %.not59, label %.lr.ph49.preheader, label %.lr.ph46

.lr.ph46:                                         ; preds = %._crit_edge
  %69 = getelementptr inbounds nuw i8, ptr %14, i64 44
  br label %72

.preheader39:                                     ; preds = %72
  %70 = trunc nuw nsw i64 %indvars.iv.next65 to i32
  %71 = icmp samesign ult i64 %indvars.iv64, 5
  br i1 %71, label %.lr.ph49.preheader, label %._crit_edge50

.lr.ph49.preheader:                               ; preds = %._crit_edge, %.preheader39
  %.348.ph = phi i32 [ 0, %._crit_edge ], [ %70, %.preheader39 ]
  br label %.lr.ph49

72:                                               ; preds = %.lr.ph46, %72
  %indvars.iv64 = phi i64 [ 0, %.lr.ph46 ], [ %indvars.iv.next65, %72 ]
  %73 = getelementptr inbounds nuw [6 x i32], ptr %69, i64 0, i64 %indvars.iv64
  %74 = load i32, ptr %73, align 4, !tbaa !13
  %75 = sitofp i32 %74 to float
  %76 = fdiv float %75, 1.000000e+03
  %77 = fpext float %76 to double
  %78 = tail call i32 (ptr, ...) @printf(ptr noundef nonnull dereferenceable(1) @.str.50, double noundef %77)
  %indvars.iv.next65 = add nuw nsw i64 %indvars.iv64, 1
  %79 = load i32, ptr %40, align 8
  %80 = lshr i32 %79, 28
  %81 = zext nneg i32 %80 to i64
  %82 = icmp samesign ult i64 %indvars.iv.next65, %81
  br i1 %82, label %72, label %.preheader39, !llvm.loop !198

.lr.ph49:                                         ; preds = %.lr.ph49.preheader, %.lr.ph49
  %.348 = phi i32 [ %84, %.lr.ph49 ], [ %.348.ph, %.lr.ph49.preheader ]
  %83 = tail call i32 (ptr, ...) @printf(ptr noundef nonnull dereferenceable(1) @.str.5)
  %84 = add nuw nsw i32 %.348, 1
  %exitcond67.not = icmp eq i32 %84, 6
  br i1 %exitcond67.not, label %._crit_edge50, label %.lr.ph49, !llvm.loop !199

._crit_edge50:                                    ; preds = %.lr.ph49, %.preheader39
  %85 = tail call i32 (ptr, ...) @printf(ptr noundef nonnull dereferenceable(1) @.str.51)
  %86 = load i32, ptr %40, align 8
  %.not60 = icmp ult i32 %86, 268435456
  br i1 %.not60, label %.lr.ph56.preheader, label %.lr.ph53

.lr.ph53:                                         ; preds = %._crit_edge50
  %87 = getelementptr inbounds nuw i8, ptr %3, i64 4
  br label %89

.preheader:                                       ; preds = %89
  %88 = icmp samesign ult i32 %.451, 5
  br i1 %88, label %.lr.ph56.preheader, label %._crit_edge57

.lr.ph56.preheader:                               ; preds = %._crit_edge50, %.preheader
  %.555.ph = phi i32 [ 0, %._crit_edge50 ], [ %101, %.preheader ]
  br label %.lr.ph56

89:                                               ; preds = %.lr.ph53, %89
  %.451 = phi i32 [ 0, %.lr.ph53 ], [ %101, %89 ]
  %90 = load i32, ptr %87, align 4
  %91 = lshr i32 %90, 1
  %92 = shl nuw nsw i32 1, %.451
  %93 = and i32 %92, 127
  %94 = and i32 %93, %91
  %.not = icmp eq i32 %94, 0
  %95 = select i1 %.not, ptr @.str.54, ptr @.str.53
  %96 = lshr i32 %90, 8
  %97 = shl nuw nsw i32 %.451, 2
  %98 = lshr i32 %96, %97
  %99 = and i32 %98, 15
  %100 = tail call i32 (ptr, ...) @printf(ptr noundef nonnull dereferenceable(1) @.str.52, ptr noundef nonnull %95, i32 noundef %99)
  %101 = add nuw nsw i32 %.451, 1
  %102 = load i32, ptr %40, align 8
  %103 = lshr i32 %102, 28
  %104 = icmp samesign ult i32 %101, %103
  br i1 %104, label %89, label %.preheader, !llvm.loop !200

.lr.ph56:                                         ; preds = %.lr.ph56.preheader, %.lr.ph56
  %.555 = phi i32 [ %106, %.lr.ph56 ], [ %.555.ph, %.lr.ph56.preheader ]
  %105 = tail call i32 (ptr, ...) @printf(ptr noundef nonnull dereferenceable(1) @.str.7)
  %106 = add nuw nsw i32 %.555, 1
  %exitcond68.not = icmp eq i32 %106, 6
  br i1 %exitcond68.not, label %._crit_edge57.loopexit, label %.lr.ph56, !llvm.loop !201

._crit_edge57.loopexit:                           ; preds = %.lr.ph56
  %.pre = load i32, ptr %40, align 8
  br label %._crit_edge57

._crit_edge57:                                    ; preds = %._crit_edge57.loopexit, %.preheader
  %107 = phi i32 [ %.pre, %._crit_edge57.loopexit ], [ %102, %.preheader ]
  %108 = getelementptr inbounds nuw i8, ptr %14, i64 32
  %109 = lshr i32 %107, 28
  tail call void @Dau_DsdPrintFromTruth(ptr noundef nonnull %108, i32 noundef %109) #26
  br label %110

110:                                              ; preds = %._crit_edge57, %9
  ret void
}